; Function Attrs: mustprogress uwtable
define noundef zeroext i1 @_ZN4YAML6Parser18HandleNextDocumentERNS_12EventHandlerE(ptr nocapture noundef nonnull align 8 dereferenceable(16) %this, ptr noundef nonnull align 1 %eventHandler) local_unnamed_addr #5 align 2 personality ptr @__gxx_personality_v0 {
entry:
  %sdp = alloca %"class.YAML::SingleDocParser", align 8
  %0 = load ptr, ptr %this, align 8
  %cmp.i.not = icmp eq ptr %0, null
  br i1 %cmp.i.not, label %return, label %if.end

if.end:                                           ; preds = %entry
  tail call void @_ZN4YAML6Parser15ParseDirectivesEv(ptr noundef nonnull align 8 dereferenceable(16) %this)
  %1 = load ptr, ptr %this, align 8
  %call4 = tail call noundef zeroext i1 @_ZN4YAML7Scanner5emptyEv(ptr noundef nonnull align 8 dereferenceable(480) %1)
  br i1 %call4, label %return, label %if.end6

if.end6:                                          ; preds = %if.end
  %2 = load ptr, ptr %this, align 8
  %m_pDirectives = getelementptr inbounds i8, ptr %this, i64 8
  %3 = load ptr, ptr %m_pDirectives, align 8
  call void @_ZN4YAML15SingleDocParserC1ERNS_7ScannerERKNS_10DirectivesE(ptr noundef nonnull align 8 dereferenceable(88) %sdp, ptr noundef nonnull align 8 dereferenceable(480) %2, ptr noundef nonnull align 8 dereferenceable(64) %3)
  invoke void @_ZN4YAML15SingleDocParser14HandleDocumentERNS_12EventHandlerE(ptr noundef nonnull align 8 dereferenceable(88) %sdp, ptr noundef nonnull align 1 %eventHandler)
          to label %invoke.cont unwind label %lpad

invoke.cont:                                      ; preds = %if.end6
  call void @_ZN4YAML15SingleDocParserD1Ev(ptr noundef nonnull align 8 dereferenceable(88) %sdp) #15
  br label %return

lpad:                                             ; preds = %if.end6
  %4 = landingpad { ptr, i32 }
          cleanup
  call void @_ZN4YAML15SingleDocParserD1Ev(ptr noundef nonnull align 8 dereferenceable(88) %sdp) #15
  resume { ptr, i32 } %4

return:                                           ; preds = %if.end, %entry, %invoke.cont
  %retval.0 = phi i1 [ true, %invoke.cont ], [ false, %entry ], [ false, %if.end ]
  ret i1 %retval.0
}